; Function Attrs: mustprogress uwtable
define void @_ZN6casadi19DeserializingStream6unpackERNSt7__cxx1112basic_stringIcSt11char_traitsIcESaIcEEE(ptr nocapture noundef nonnull readonly align 8 dereferenceable(41) %0, ptr noundef nonnull align 8 dereferenceable(32) %1) local_unnamed_addr #3 align 2 {
  %3 = alloca i8, align 1
  %4 = alloca i8, align 1
  %5 = alloca i32, align 4
  tail call void @_ZN6casadi19DeserializingStream17assert_decorationEc(ptr noundef nonnull align 8 dereferenceable(41) %0, i8 noundef signext 115)
  call void @llvm.lifetime.start.p0(i64 4, ptr nonnull %5)
  tail call void @_ZN6casadi19DeserializingStream17assert_decorationEc(ptr noundef nonnull align 8 dereferenceable(41) %0, i8 noundef signext 105)
  %6 = getelementptr inbounds i8, ptr %0, i64 32
  br label %7

7:                                                ; preds = %7, %2
  %indvars.iv.i = phi i64 [ 0, %2 ], [ %indvars.iv.next.i, %7 ]
  %8 = getelementptr inbounds i8, ptr %5, i64 %indvars.iv.i
  call void @llvm.lifetime.start.p0(i64 1, ptr nonnull %4)
  %9 = load ptr, ptr %6, align 8
  %10 = call noundef nonnull align 8 dereferenceable(16) ptr @_ZNSi3getERc(ptr noundef nonnull align 8 dereferenceable(16) %9, ptr noundef nonnull align 1 dereferenceable(1) %8)
  %11 = load ptr, ptr %6, align 8
  %12 = call noundef nonnull align 8 dereferenceable(16) ptr @_ZNSi3getERc(ptr noundef nonnull align 8 dereferenceable(16) %11, ptr noundef nonnull align 1 dereferenceable(1) %4)
  %13 = load i8, ptr %8, align 1
  %14 = load i8, ptr %4, align 1
  %15 = shl i8 %14, 4
  %16 = add i8 %13, -113
  %17 = add i8 %16, %15
  store i8 %17, ptr %8, align 1
  call void @llvm.lifetime.end.p0(i64 1, ptr nonnull %4)
  %indvars.iv.next.i = add nuw nsw i64 %indvars.iv.i, 1
  %exitcond.not.i = icmp eq i64 %indvars.iv.next.i, 4
  br i1 %exitcond.not.i, label %_ZN6casadi19DeserializingStream6unpackERi.exit, label %7, !llvm.loop !27

_ZN6casadi19DeserializingStream6unpackERi.exit:   ; preds = %7
  %18 = load i32, ptr %5, align 4
  call void @llvm.lifetime.end.p0(i64 4, ptr nonnull %5)
  %19 = sext i32 %18 to i64
  call void @_ZNSt7__cxx1112basic_stringIcSt11char_traitsIcESaIcEE6resizeEm(ptr noundef nonnull align 8 dereferenceable(32) %1, i64 noundef %19)
  %20 = icmp sgt i32 %18, 0
  br i1 %20, label %.lr.ph.preheader, label %._crit_edge

.lr.ph.preheader:                                 ; preds = %_ZN6casadi19DeserializingStream6unpackERi.exit
  %wide.trip.count = zext nneg i32 %18 to i64
  br label %.lr.ph

.lr.ph:                                           ; preds = %.lr.ph.preheader, %.lr.ph
  %indvars.iv = phi i64 [ 0, %.lr.ph.preheader ], [ %indvars.iv.next, %.lr.ph ]
  %21 = call noundef nonnull align 1 dereferenceable(1) ptr @_ZNSt7__cxx1112basic_stringIcSt11char_traitsIcESaIcEEixEm(ptr noundef nonnull align 8 dereferenceable(32) %1, i64 noundef %indvars.iv)
  call void @llvm.lifetime.start.p0(i64 1, ptr nonnull %3)
  %22 = load ptr, ptr %6, align 8
  %23 = call noundef nonnull align 8 dereferenceable(16) ptr @_ZNSi3getERc(ptr noundef nonnull align 8 dereferenceable(16) %22, ptr noundef nonnull align 1 dereferenceable(1) %21)
  %24 = load ptr, ptr %6, align 8
  %25 = call noundef nonnull align 8 dereferenceable(16) ptr @_ZNSi3getERc(ptr noundef nonnull align 8 dereferenceable(16) %24, ptr noundef nonnull align 1 dereferenceable(1) %3)
  %26 = load i8, ptr %21, align 1
  %27 = load i8, ptr %3, align 1
  %28 = shl i8 %27, 4
  %29 = add i8 %26, -113
  %30 = add i8 %29, %28
  store i8 %30, ptr %21, align 1
  call void @llvm.lifetime.end.p0(i64 1, ptr nonnull %3)
  %indvars.iv.next = add nuw nsw i64 %indvars.iv, 1
  %exitcond.not = icmp eq i64 %indvars.iv.next, %wide.trip.count
  br i1 %exitcond.not, label %._crit_edge, label %.lr.ph, !llvm.loop !32

._crit_edge:                                      ; preds = %.lr.ph, %_ZN6casadi19DeserializingStream6unpackERi.exit
  ret void
}